target datalayout = "e-m:e-p270:32:32-p271:32:32-p272:64:64-i64:64-i128:128-f80:128-n8:16:32:64-S128"
target triple = "x86_64-pc-linux-gnu"

%"class.icu_77::RelativeDateTimeCacheData" = type { %"class.icu_77::SharedObject", [3 x [15 x [6 x %"class.icu_77::UnicodeString"]]], [3 x [15 x [2 x [8 x ptr]]]], %"class.icu_77::UnicodeString", [3 x i32], ptr }
%"class.icu_77::SharedObject" = type { %"class.icu_77::UObject", i32, %"struct.std::atomic", ptr }
%"class.icu_77::UObject" = type { ptr }
%"struct.std::atomic" = type { %"struct.std::__atomic_base" }
%"struct.std::__atomic_base" = type { i32 }
%"class.icu_77::UnicodeString" = type { %"class.icu_77::Replaceable", %"union.icu_77::UnicodeString::StackBufferOrFields" }
%"class.icu_77::Replaceable" = type { %"class.icu_77::UObject" }
%"union.icu_77::UnicodeString::StackBufferOrFields" = type { %struct.anon.0, [32 x i8] }
%struct.anon.0 = type { i16, i32, i32, ptr }
%"class.icu_77::Locale" = type <{ %"class.icu_77::UObject", [12 x i8], [6 x i8], [4 x i8], [2 x i8], i32, [4 x i8], ptr, [157 x i8], [3 x i8], ptr, i8, [7 x i8] }>
%"class.icu_77::ConstChar16Ptr" = type { ptr }
%"class.icu_77::RelativeDateTimeFormatter" = type { %"class.icu_77::UObject", ptr, ptr, ptr, i32, i32, ptr, %"class.icu_77::Locale" }
%"class.icu_77::Char16Ptr" = type { ptr }

; Function Attrs: mustprogress nounwind uwtable
define linkonce_odr noundef ptr @_ZNK6icu_7725RelativeDateTimeCacheData22getCombinedDateAndTimeEv(ptr noundef nonnull align 8 dereferenceable(23152) %0) #0 comdat align 2 {
  %2 = alloca ptr, align 8
  store ptr %0, ptr %2, align 8, !tbaa !23
  %3 = load ptr, ptr %2, align 8
  %4 = getelementptr inbounds nuw %"class.icu_77::RelativeDateTimeCacheData", ptr %3, i32 0, i32 5
  %5 = load ptr, ptr %4, align 8, !tbaa !33
  ret ptr %5
}

; Function Attrs: inlinehint mustprogress nounwind uwtable
define linkonce_odr void @_ZN6icu_779Char16PtrD2Ev(ptr noundef nonnull align 8 dereferenceable(8) %0) unnamed_addr #2 comdat align 2 {
  %2 = alloca ptr, align 8
  store ptr %0, ptr %2, align 8, !tbaa !197
  %3 = load ptr, ptr %2, align 8
  %4 = getelementptr inbounds nuw %"class.icu_77::Char16Ptr", ptr %3, i32 0, i32 0
  %5 = load ptr, ptr %4, align 8, !tbaa !199
  call void asm sideeffect "", "rm,~{memory},~{dirflag},~{fpsr},~{flags}"(ptr %5) #12, !srcloc !201
  ret void
}

; Function Attrs: inlinehint mustprogress nounwind uwtable
define linkonce_odr void @_ZN6icu_779Char16PtrC2EPDs(ptr noundef nonnull align 8 dereferenceable(8) %0, ptr noundef %1) unnamed_addr #2 comdat align 2 {
  %3 = alloca ptr, align 8
  %4 = alloca ptr, align 8
  store ptr %0, ptr %3, align 8, !tbaa !197
  store ptr %1, ptr %4, align 8, !tbaa !195
  %5 = load ptr, ptr %3, align 8
  %6 = getelementptr inbounds nuw %"class.icu_77::Char16Ptr", ptr %5, i32 0, i32 0
  %7 = load ptr, ptr %4, align 8, !tbaa !195
  store ptr %7, ptr %6, align 8, !tbaa !199
  ret void
}

; Function Attrs: mustprogress uwtable
define noundef nonnull align 8 dereferenceable(64) ptr @_ZNK6icu_7725RelativeDateTimeFormatter18combineDateAndTimeERKNS_13UnicodeStringES3_RS1_R10UErrorCode(ptr noundef nonnull align 8 dereferenceable(272) %0, ptr noundef nonnull align 8 dereferenceable(64) %1, ptr noundef nonnull align 8 dereferenceable(64) %2, ptr noundef nonnull align 8 dereferenceable(64) %3, ptr noundef nonnull align 4 dereferenceable(4) %4) #1 align 2 {
  %6 = alloca ptr, align 8
  %7 = alloca ptr, align 8
  %8 = alloca ptr, align 8
  %9 = alloca ptr, align 8
  %10 = alloca ptr, align 8
  store ptr %0, ptr %6, align 8, !tbaa !94
  store ptr %1, ptr %7, align 8, !tbaa !47
  store ptr %2, ptr %8, align 8, !tbaa !47
  store ptr %3, ptr %9, align 8, !tbaa !47
  store ptr %4, ptr %10, align 8, !tbaa !22
  %11 = load ptr, ptr %6, align 8
  %12 = getelementptr inbounds nuw %"class.icu_77::RelativeDateTimeFormatter", ptr %11, i32 0, i32 1
  %13 = load ptr, ptr %12, align 8, !tbaa !96
  %14 = call noundef ptr @_ZNK6icu_7725RelativeDateTimeCacheData22getCombinedDateAndTimeEv(ptr noundef nonnull align 8 dereferenceable(23152) %13)
  %15 = load ptr, ptr %8, align 8, !tbaa !47
  %16 = load ptr, ptr %7, align 8, !tbaa !47
  %17 = load ptr, ptr %9, align 8, !tbaa !47
  %18 = load ptr, ptr %10, align 8, !tbaa !22
  %19 = call noundef nonnull align 8 dereferenceable(64) ptr @_ZNK6icu_7715SimpleFormatter6formatERKNS_13UnicodeStringES3_RS1_R10UErrorCode(ptr noundef nonnull align 8 dereferenceable(72) %14, ptr noundef nonnull align 8 dereferenceable(64) %15, ptr noundef nonnull align 8 dereferenceable(64) %16, ptr noundef nonnull align 8 dereferenceable(64) %17, ptr noundef nonnull align 4 dereferenceable(4) %18)
  ret ptr %19
}

; Function Attrs: inlinehint mustprogress nounwind uwtable
define linkonce_odr void @_ZN6icu_7714ConstChar16PtrD2Ev(ptr noundef nonnull align 8 dereferenceable(8) %0) unnamed_addr #2 comdat align 2 {
  %2 = alloca ptr, align 8
  store ptr %0, ptr %2, align 8, !tbaa !202
  %3 = load ptr, ptr %2, align 8
  %4 = getelementptr inbounds nuw %"class.icu_77::ConstChar16Ptr", ptr %3, i32 0, i32 0
  %5 = load ptr, ptr %4, align 8, !tbaa !204
  call void asm sideeffect "", "rm,~{memory},~{dirflag},~{fpsr},~{flags}"(ptr %5) #12, !srcloc !206
  ret void
}

; Function Attrs: inlinehint mustprogress nounwind uwtable
define linkonce_odr void @_ZN6icu_7714ConstChar16PtrC2EPKDs(ptr noundef nonnull align 8 dereferenceable(8) %0, ptr noundef %1) unnamed_addr #2 comdat align 2 {
  %3 = alloca ptr, align 8
  %4 = alloca ptr, align 8
  store ptr %0, ptr %3, align 8, !tbaa !202
  store ptr %1, ptr %4, align 8, !tbaa !195
  %5 = load ptr, ptr %3, align 8
  %6 = getelementptr inbounds nuw %"class.icu_77::ConstChar16Ptr", ptr %5, i32 0, i32 0
  %7 = load ptr, ptr %4, align 8, !tbaa !195
  store ptr %7, ptr %6, align 8, !tbaa !204
  ret void
}

; Function Attrs: inlinehint mustprogress nounwind uwtable
define internal noundef signext i8 @_ZL9U_FAILURE10UErrorCode(i32 noundef %0) #2 {
  %2 = alloca i32, align 4
  store i32 %0, ptr %2, align 4, !tbaa !15
  %3 = load i32, ptr %2, align 4, !tbaa !15
  %4 = icmp sgt i32 %3, 0
  %5 = zext i1 %4 to i8
  ret i8 %5
}

; Function Attrs: mustprogress uwtable
define i32 @ureldatefmt_combineDateAndTime_77(ptr noundef %0, ptr noundef %1, i32 noundef %2, ptr noundef %3, i32 noundef %4, ptr noundef %5, i32 noundef %6, ptr noundef %7) #1 personality ptr @__gxx_personality_v0 {
  %9 = alloca i32, align 4
  %10 = alloca ptr, align 8
  %11 = alloca ptr, align 8
  %12 = alloca i32, align 4
  %13 = alloca ptr, align 8
  %14 = alloca i32, align 4
  %15 = alloca ptr, align 8
  %16 = alloca i32, align 4
  %17 = alloca ptr, align 8
  %18 = alloca %"class.icu_77::UnicodeString", align 8
  %19 = alloca %"class.icu_77::ConstChar16Ptr", align 8
  %20 = alloca ptr, align 8
  %21 = alloca i32, align 4
  %22 = alloca %"class.icu_77::UnicodeString", align 8
  %23 = alloca %"class.icu_77::ConstChar16Ptr", align 8
  %24 = alloca %"class.icu_77::UnicodeString", align 8
  %25 = alloca i32, align 4
  %26 = alloca %"class.icu_77::Char16Ptr", align 8
  store ptr %0, ptr %10, align 8, !tbaa !193
  store ptr %1, ptr %11, align 8, !tbaa !195
  store i32 %2, ptr %12, align 4, !tbaa !14
  store ptr %3, ptr %13, align 8, !tbaa !195
  store i32 %4, ptr %14, align 4, !tbaa !14
  store ptr %5, ptr %15, align 8, !tbaa !195
  store i32 %6, ptr %16, align 4, !tbaa !14
  store ptr %7, ptr %17, align 8, !tbaa !22
  %27 = load ptr, ptr %17, align 8, !tbaa !22
  %28 = load i32, ptr %27, align 4, !tbaa !15
  %29 = call noundef signext i8 @_ZL9U_FAILURE10UErrorCode(i32 noundef %28)
  %30 = icmp ne i8 %29, 0
  br i1 %30, label %31, label %32

31:                                               ; preds = %8
  store i32 0, ptr %9, align 4
  br label %124

32:                                               ; preds = %8
  %33 = load ptr, ptr %15, align 8, !tbaa !195
  %34 = icmp eq ptr %33, null
  br i1 %34, label %35, label %38

35:                                               ; preds = %32
  %36 = load i32, ptr %16, align 4, !tbaa !14
  %37 = icmp ne i32 %36, 0
  br i1 %37, label %59, label %61

38:                                               ; preds = %32
  %39 = load i32, ptr %16, align 4, !tbaa !14
  %40 = icmp slt i32 %39, 0
  br i1 %40, label %59, label %41

41:                                               ; preds = %38
  %42 = load ptr, ptr %11, align 8, !tbaa !195
  %43 = icmp eq ptr %42, null
  br i1 %43, label %44, label %47

44:                                               ; preds = %41
  %45 = load i32, ptr %12, align 4, !tbaa !14
  %46 = icmp ne i32 %45, 0
  br i1 %46, label %59, label %50

47:                                               ; preds = %41
  %48 = load i32, ptr %12, align 4, !tbaa !14
  %49 = icmp slt i32 %48, -1
  br i1 %49, label %59, label %50

50:                                               ; preds = %47, %44
  %51 = load ptr, ptr %13, align 8, !tbaa !195
  %52 = icmp eq ptr %51, null
  br i1 %52, label %53, label %56

53:                                               ; preds = %50
  %54 = load i32, ptr %14, align 4, !tbaa !14
  %55 = icmp ne i32 %54, 0
  br i1 %55, label %59, label %61

56:                                               ; preds = %50
  %57 = load i32, ptr %14, align 4, !tbaa !14
  %58 = icmp slt i32 %57, -1
  br i1 %58, label %59, label %61

59:                                               ; preds = %56, %53, %47, %44, %38, %35
  %60 = load ptr, ptr %17, align 8, !tbaa !22
  store i32 1, ptr %60, align 4, !tbaa !15
  store i32 0, ptr %9, align 4
  br label %124

61:                                               ; preds = %56, %53, %35
  call void @llvm.lifetime.start.p0(i64 64, ptr %18) #12
  %62 = load i32, ptr %12, align 4, !tbaa !14
  %63 = icmp eq i32 %62, -1
  %64 = zext i1 %63 to i8
  %65 = load ptr, ptr %11, align 8, !tbaa !195
  call void @_ZN6icu_7714ConstChar16PtrC2EPKDs(ptr noundef nonnull align 8 dereferenceable(8) %19, ptr noundef %65)
  %66 = load i32, ptr %12, align 4, !tbaa !14
  invoke void @_ZN6icu_7713UnicodeStringC1EaNS_14ConstChar16PtrEi(ptr noundef nonnull align 8 dereferenceable(64) %18, i8 noundef signext %64, ptr noundef %19, i32 noundef %66)
          to label %67 unwind label %88

67:                                               ; preds = %61
  call void @_ZN6icu_7714ConstChar16PtrD2Ev(ptr noundef nonnull align 8 dereferenceable(8) %19) #12
  call void @llvm.lifetime.start.p0(i64 64, ptr %22) #12
  %68 = load i32, ptr %14, align 4, !tbaa !14
  %69 = icmp eq i32 %68, -1
  %70 = zext i1 %69 to i8
  %71 = load ptr, ptr %13, align 8, !tbaa !195
  invoke void @_ZN6icu_7714ConstChar16PtrC2EPKDs(ptr noundef nonnull align 8 dereferenceable(8) %23, ptr noundef %71)
          to label %72 unwind label %92

72:                                               ; preds = %67
  %73 = load i32, ptr %14, align 4, !tbaa !14
  invoke void @_ZN6icu_7713UnicodeStringC1EaNS_14ConstChar16PtrEi(ptr noundef nonnull align 8 dereferenceable(64) %22, i8 noundef signext %70, ptr noundef %23, i32 noundef %73)
          to label %74 unwind label %96

74:                                               ; preds = %72
  call void @_ZN6icu_7714ConstChar16PtrD2Ev(ptr noundef nonnull align 8 dereferenceable(8) %23) #12
  call void @llvm.lifetime.start.p0(i64 64, ptr %24) #12
  %75 = load ptr, ptr %15, align 8, !tbaa !195
  %76 = load i32, ptr %16, align 4, !tbaa !14
  invoke void @_ZN6icu_7713UnicodeStringC1EPDsii(ptr noundef nonnull align 8 dereferenceable(64) %24, ptr noundef %75, i32 noundef 0, i32 noundef %76)
          to label %77 unwind label %100

77:                                               ; preds = %74
  %78 = load ptr, ptr %10, align 8, !tbaa !193
  %79 = load ptr, ptr %17, align 8, !tbaa !22
  %80 = invoke noundef nonnull align 8 dereferenceable(64) ptr @_ZNK6icu_7725RelativeDateTimeFormatter18combineDateAndTimeERKNS_13UnicodeStringES3_RS1_R10UErrorCode(ptr noundef nonnull align 8 dereferenceable(272) %78, ptr noundef nonnull align 8 dereferenceable(64) %18, ptr noundef nonnull align 8 dereferenceable(64) %22, ptr noundef nonnull align 8 dereferenceable(64) %24, ptr noundef nonnull align 4 dereferenceable(4) %79)
          to label %81 unwind label %104

81:                                               ; preds = %77
  %82 = load ptr, ptr %17, align 8, !tbaa !22
  %83 = load i32, ptr %82, align 4, !tbaa !15
  %84 = invoke noundef signext i8 @_ZL9U_FAILURE10UErrorCode(i32 noundef %83)
          to label %85 unwind label %104

85:                                               ; preds = %81
  %86 = icmp ne i8 %84, 0
  br i1 %86, label %87, label %108

87:                                               ; preds = %85
  store i32 0, ptr %9, align 4
  store i32 1, ptr %25, align 4
  br label %119

88:                                               ; preds = %61
  %89 = landingpad { ptr, i32 }
          cleanup
  %90 = extractvalue { ptr, i32 } %89, 0
  store ptr %90, ptr %20, align 8
  %91 = extractvalue { ptr, i32 } %89, 1
  store i32 %91, ptr %21, align 4
  call void @_ZN6icu_7714ConstChar16PtrD2Ev(ptr noundef nonnull align 8 dereferenceable(8) %19) #12
  br label %123

92:                                               ; preds = %67
  %93 = landingpad { ptr, i32 }
          cleanup
  %94 = extractvalue { ptr, i32 } %93, 0
  store ptr %94, ptr %20, align 8
  %95 = extractvalue { ptr, i32 } %93, 1
  store i32 %95, ptr %21, align 4
  br label %122

96:                                               ; preds = %72
  %97 = landingpad { ptr, i32 }
          cleanup
  %98 = extractvalue { ptr, i32 } %97, 0
  store ptr %98, ptr %20, align 8
  %99 = extractvalue { ptr, i32 } %97, 1
  store i32 %99, ptr %21, align 4
  call void @_ZN6icu_7714ConstChar16PtrD2Ev(ptr noundef nonnull align 8 dereferenceable(8) %23) #12
  br label %122

100:                                              ; preds = %74
  %101 = landingpad { ptr, i32 }
          cleanup
  %102 = extractvalue { ptr, i32 } %101, 0
  store ptr %102, ptr %20, align 8
  %103 = extractvalue { ptr, i32 } %101, 1
  store i32 %103, ptr %21, align 4
  br label %121

104:                                              ; preds = %108, %81, %77
  %105 = landingpad { ptr, i32 }
          cleanup
  %106 = extractvalue { ptr, i32 } %105, 0
  store ptr %106, ptr %20, align 8
  %107 = extractvalue { ptr, i32 } %105, 1
  store i32 %107, ptr %21, align 4
  br label %120

108:                                              ; preds = %85
  %109 = load ptr, ptr %15, align 8, !tbaa !195
  invoke void @_ZN6icu_779Char16PtrC2EPDs(ptr noundef nonnull align 8 dereferenceable(8) %26, ptr noundef %109)
          to label %110 unwind label %104

110:                                              ; preds = %108
  %111 = load i32, ptr %16, align 4, !tbaa !14
  %112 = load ptr, ptr %17, align 8, !tbaa !22
  %113 = invoke noundef i32 @_ZNK6icu_7713UnicodeString7extractENS_9Char16PtrEiR10UErrorCode(ptr noundef nonnull align 8 dereferenceable(64) %24, ptr noundef %26, i32 noundef %111, ptr noundef nonnull align 4 dereferenceable(4) %112)
          to label %114 unwind label %115

114:                                              ; preds = %110
  store i32 %113, ptr %9, align 4
  call void @_ZN6icu_779Char16PtrD2Ev(ptr noundef nonnull align 8 dereferenceable(8) %26) #12
  store i32 1, ptr %25, align 4
  br label %119

115:                                              ; preds = %110
  %116 = landingpad { ptr, i32 }
          cleanup
  %117 = extractvalue { ptr, i32 } %116, 0
  store ptr %117, ptr %20, align 8
  %118 = extractvalue { ptr, i32 } %116, 1
  store i32 %118, ptr %21, align 4
  call void @_ZN6icu_779Char16PtrD2Ev(ptr noundef nonnull align 8 dereferenceable(8) %26) #12
  br label %120

119:                                              ; preds = %114, %87
  call void @_ZN6icu_7713UnicodeStringD1Ev(ptr noundef nonnull align 8 dereferenceable(64) %24) #12
  call void @llvm.lifetime.end.p0(i64 64, ptr %24) #12
  call void @_ZN6icu_7713UnicodeStringD1Ev(ptr noundef nonnull align 8 dereferenceable(64) %22) #12
  call void @llvm.lifetime.end.p0(i64 64, ptr %22) #12
  call void @_ZN6icu_7713UnicodeStringD1Ev(ptr noundef nonnull align 8 dereferenceable(64) %18) #12
  call void @llvm.lifetime.end.p0(i64 64, ptr %18) #12
  br label %124

120:                                              ; preds = %115, %104
  call void @_ZN6icu_7713UnicodeStringD1Ev(ptr noundef nonnull align 8 dereferenceable(64) %24) #12
  br label %121

121:                                              ; preds = %120, %100
  call void @llvm.lifetime.end.p0(i64 64, ptr %24) #12
  call void @_ZN6icu_7713UnicodeStringD1Ev(ptr noundef nonnull align 8 dereferenceable(64) %22) #12
  br label %122

122:                                              ; preds = %121, %96, %92
  call void @llvm.lifetime.end.p0(i64 64, ptr %22) #12
  call void @_ZN6icu_7713UnicodeStringD1Ev(ptr noundef nonnull align 8 dereferenceable(64) %18) #12
  br label %123

123:                                              ; preds = %122, %88
  call void @llvm.lifetime.end.p0(i64 64, ptr %18) #12
  br label %126

124:                                              ; preds = %119, %59, %31
  %125 = load i32, ptr %9, align 4
  ret i32 %125

126:                                              ; preds = %123
  %127 = load ptr, ptr %20, align 8
  %128 = load i32, ptr %21, align 4
  %129 = insertvalue { ptr, i32 } poison, ptr %127, 0
  %130 = insertvalue { ptr, i32 } %129, i32 %128, 1
  resume { ptr, i32 } %130
}