; Function Attrs: mustprogress uwtable
define noundef i32 @ureldatefmt_combineDateAndTime_77(ptr noundef readonly captures(none) %0, ptr noundef %1, i32 noundef %2, ptr noundef %3, i32 noundef %4, ptr noundef %5, i32 noundef %6, ptr noundef %7) local_unnamed_addr #1 personality ptr @__gxx_personality_v0 {
  %9 = alloca %"class.icu_77::UnicodeString", align 8
  %10 = alloca %"class.icu_77::ConstChar16Ptr", align 8
  %11 = alloca %"class.icu_77::UnicodeString", align 8
  %12 = alloca %"class.icu_77::ConstChar16Ptr", align 8
  %13 = alloca %"class.icu_77::UnicodeString", align 8
  %14 = alloca %"class.icu_77::Char16Ptr", align 8
  %15 = load i32, ptr %7, align 4, !tbaa !13
  %16 = icmp slt i32 %15, 1
  br i1 %16, label %17, label %72

17:                                               ; preds = %8
  %18 = icmp eq ptr %5, null
  br i1 %18, label %19, label %20

19:                                               ; preds = %17
  %.not35 = icmp eq i32 %6, 0
  br i1 %.not35, label %33, label %32

20:                                               ; preds = %17
  %21 = icmp slt i32 %6, 0
  br i1 %21, label %32, label %22

22:                                               ; preds = %20
  %23 = icmp eq ptr %1, null
  br i1 %23, label %24, label %25

24:                                               ; preds = %22
  %.not33 = icmp eq i32 %2, 0
  br i1 %.not33, label %27, label %32

25:                                               ; preds = %22
  %26 = icmp slt i32 %2, -1
  br i1 %26, label %32, label %27

27:                                               ; preds = %25, %24
  %28 = icmp eq ptr %3, null
  br i1 %28, label %29, label %30

29:                                               ; preds = %27
  %.not34 = icmp eq i32 %4, 0
  br i1 %.not34, label %33, label %32

30:                                               ; preds = %27
  %31 = icmp slt i32 %4, -1
  br i1 %31, label %32, label %33

32:                                               ; preds = %30, %29, %25, %24, %20, %19
  store i32 1, ptr %7, align 4, !tbaa !13
  br label %72

33:                                               ; preds = %30, %29, %19
  call void @llvm.lifetime.start.p0(i64 64, ptr nonnull %9) #20
  %34 = icmp eq i32 %2, -1
  %35 = zext i1 %34 to i8
  store ptr %1, ptr %10, align 8, !tbaa !51
  invoke void @_ZN6icu_7713UnicodeStringC1EaNS_14ConstChar16PtrEi(ptr noundef nonnull align 8 dereferenceable(64) %9, i8 noundef signext %35, ptr noundef nonnull %10, i32 noundef %2)
          to label %36 unwind label %50

36:                                               ; preds = %33
  %37 = load ptr, ptr %10, align 8, !tbaa !51
  call void asm sideeffect "", "rm,~{memory},~{dirflag},~{fpsr},~{flags}"(ptr %37) #20, !srcloc !54
  call void @llvm.lifetime.start.p0(i64 64, ptr nonnull %11) #20
  %38 = icmp eq i32 %4, -1
  %39 = zext i1 %38 to i8
  store ptr %3, ptr %12, align 8, !tbaa !51
  invoke void @_ZN6icu_7713UnicodeStringC1EaNS_14ConstChar16PtrEi(ptr noundef nonnull align 8 dereferenceable(64) %11, i8 noundef signext %39, ptr noundef nonnull %12, i32 noundef %4)
          to label %40 unwind label %53

40:                                               ; preds = %36
  %41 = load ptr, ptr %12, align 8, !tbaa !51
  call void asm sideeffect "", "rm,~{memory},~{dirflag},~{fpsr},~{flags}"(ptr %41) #20, !srcloc !54
  call void @llvm.lifetime.start.p0(i64 64, ptr nonnull %13) #20
  invoke void @_ZN6icu_7713UnicodeStringC1EPDsii(ptr noundef nonnull align 8 dereferenceable(64) %13, ptr noundef %5, i32 noundef 0, i32 noundef %6)
          to label %42 unwind label %56

42:                                               ; preds = %40
  %43 = getelementptr inbounds nuw i8, ptr %0, i64 8
  %44 = load ptr, ptr %43, align 8, !tbaa !87
  %45 = getelementptr inbounds nuw i8, ptr %44, i64 23144
  %46 = load ptr, ptr %45, align 8, !tbaa !17
  %47 = invoke noundef nonnull align 8 dereferenceable(64) ptr @_ZNK6icu_7715SimpleFormatter6formatERKNS_13UnicodeStringES3_RS1_R10UErrorCode(ptr noundef nonnull align 8 dereferenceable(72) %46, ptr noundef nonnull align 8 dereferenceable(64) %11, ptr noundef nonnull align 8 dereferenceable(64) %9, ptr noundef nonnull align 8 dereferenceable(64) %13, ptr noundef nonnull align 4 dereferenceable(4) %7)
          to label %_ZNK6icu_7725RelativeDateTimeFormatter18combineDateAndTimeERKNS_13UnicodeStringES3_RS1_R10UErrorCode.exit unwind label %58

_ZNK6icu_7725RelativeDateTimeFormatter18combineDateAndTimeERKNS_13UnicodeStringES3_RS1_R10UErrorCode.exit: ; preds = %42
  %48 = load i32, ptr %7, align 4, !tbaa !13
  %49 = icmp slt i32 %48, 1
  br i1 %49, label %60, label %67

50:                                               ; preds = %33
  %51 = landingpad { ptr, i32 }
          cleanup
  %52 = load ptr, ptr %10, align 8, !tbaa !51
  call void asm sideeffect "", "rm,~{memory},~{dirflag},~{fpsr},~{flags}"(ptr %52) #20, !srcloc !54
  br label %71

53:                                               ; preds = %36
  %54 = landingpad { ptr, i32 }
          cleanup
  %55 = load ptr, ptr %12, align 8, !tbaa !51
  call void asm sideeffect "", "rm,~{memory},~{dirflag},~{fpsr},~{flags}"(ptr %55) #20, !srcloc !54
  br label %70

56:                                               ; preds = %40
  %57 = landingpad { ptr, i32 }
          cleanup
  br label %69

58:                                               ; preds = %42
  %59 = landingpad { ptr, i32 }
          cleanup
  br label %68

60:                                               ; preds = %_ZNK6icu_7725RelativeDateTimeFormatter18combineDateAndTimeERKNS_13UnicodeStringES3_RS1_R10UErrorCode.exit
  store ptr %5, ptr %14, align 8, !tbaa !112
  %61 = invoke noundef i32 @_ZNK6icu_7713UnicodeString7extractENS_9Char16PtrEiR10UErrorCode(ptr noundef nonnull align 8 dereferenceable(64) %13, ptr noundef nonnull %14, i32 noundef %6, ptr noundef nonnull align 4 dereferenceable(4) %7)
          to label %62 unwind label %64

62:                                               ; preds = %60
  %63 = load ptr, ptr %14, align 8, !tbaa !112
  call void asm sideeffect "", "rm,~{memory},~{dirflag},~{fpsr},~{flags}"(ptr %63) #20, !srcloc !114
  br label %67

64:                                               ; preds = %60
  %65 = landingpad { ptr, i32 }
          cleanup
  %66 = load ptr, ptr %14, align 8, !tbaa !112
  call void asm sideeffect "", "rm,~{memory},~{dirflag},~{fpsr},~{flags}"(ptr %66) #20, !srcloc !114
  br label %68

67:                                               ; preds = %_ZNK6icu_7725RelativeDateTimeFormatter18combineDateAndTimeERKNS_13UnicodeStringES3_RS1_R10UErrorCode.exit, %62
  %.132 = phi i32 [ %61, %62 ], [ 0, %_ZNK6icu_7725RelativeDateTimeFormatter18combineDateAndTimeERKNS_13UnicodeStringES3_RS1_R10UErrorCode.exit ]
  call void @_ZN6icu_7713UnicodeStringD1Ev(ptr noundef nonnull align 8 dereferenceable(64) %13) #20
  call void @llvm.lifetime.end.p0(i64 64, ptr nonnull %13) #20
  call void @_ZN6icu_7713UnicodeStringD1Ev(ptr noundef nonnull align 8 dereferenceable(64) %11) #20
  call void @llvm.lifetime.end.p0(i64 64, ptr nonnull %11) #20
  call void @_ZN6icu_7713UnicodeStringD1Ev(ptr noundef nonnull align 8 dereferenceable(64) %9) #20
  call void @llvm.lifetime.end.p0(i64 64, ptr nonnull %9) #20
  br label %72

68:                                               ; preds = %64, %58
  %.pn = phi { ptr, i32 } [ %65, %64 ], [ %59, %58 ]
  call void @_ZN6icu_7713UnicodeStringD1Ev(ptr noundef nonnull align 8 dereferenceable(64) %13) #20
  br label %69

69:                                               ; preds = %68, %56
  %.pn.pn = phi { ptr, i32 } [ %.pn, %68 ], [ %57, %56 ]
  call void @llvm.lifetime.end.p0(i64 64, ptr nonnull %13) #20
  call void @_ZN6icu_7713UnicodeStringD1Ev(ptr noundef nonnull align 8 dereferenceable(64) %11) #20
  br label %70

70:                                               ; preds = %69, %53
  %.pn.pn.pn = phi { ptr, i32 } [ %.pn.pn, %69 ], [ %54, %53 ]
  call void @llvm.lifetime.end.p0(i64 64, ptr nonnull %11) #20
  call void @_ZN6icu_7713UnicodeStringD1Ev(ptr noundef nonnull align 8 dereferenceable(64) %9) #20
  br label %71

71:                                               ; preds = %70, %50
  %.pn.pn.pn.pn = phi { ptr, i32 } [ %.pn.pn.pn, %70 ], [ %51, %50 ]
  call void @llvm.lifetime.end.p0(i64 64, ptr nonnull %9) #20
  resume { ptr, i32 } %.pn.pn.pn.pn

72:                                               ; preds = %8, %67, %32
  %.031 = phi i32 [ 0, %32 ], [ %.132, %67 ], [ 0, %8 ]
  ret i32 %.031
}